; ModuleID = '56/553.c'
source_filename = "56/553.c"
target datalayout = "e-m:e-p270:32:32-p271:32:32-p272:64:64-i64:64-f80:128-n8:16:32:64-S128"
target triple = "x86_64-pc-linux-gnu"

@.str = private unnamed_addr constant [3 x i8] c"%s\00", align 1

; Function Attrs: noinline nounwind uwtable
define dso_local i32 @main(i32 %0, i8** %1) #0 {
  %3 = alloca i32, align 4
  %4 = alloca i32, align 4
  %5 = alloca i8**, align 8
  %6 = alloca [5 x i8], align 1
  %7 = alloca [5 x i8], align 1
  %8 = alloca i32, align 4
  %9 = alloca i32, align 4
  %10 = alloca i32, align 4
  %11 = alloca i32, align 4
  store i32 0, i32* %3, align 4
  store i32 %0, i32* %4, align 4
  store i8** %1, i8*** %5, align 8
  %12 = call i32 (i8*, ...) @__isoc99_scanf(i8* getelementptr inbounds ([3 x i8], [3 x i8]* @.str, i64 0, i64 0), [5 x i8]* %6)
  store i32 0, i32* %8, align 4
  store i32 0, i32* %11, align 4
  store i32 0, i32* %9, align 4
  br label %13

13:                                               ; preds = %32, %2
  %14 = load i32, i32* %9, align 4
  %15 = sext i32 %14 to i64
  %16 = getelementptr inbounds [5 x i8], [5 x i8]* %6, i64 0, i64 %15
  %17 = load i8, i8* %16, align 1
  %18 = sext i8 %17 to i32
  %19 = icmp ne i32 %18, 48
  br i1 %19, label %20, label %27

20:                                               ; preds = %13
  %21 = load i32, i32* %9, align 4
  %22 = sext i32 %21 to i64
  %23 = getelementptr inbounds [5 x i8], [5 x i8]* %6, i64 0, i64 %22
  %24 = load i8, i8* %23, align 1
  %25 = sext i8 %24 to i32
  %26 = icmp ne i32 %25, 0
  br label %27

27:                                               ; preds = %20, %13
  %28 = phi i1 [ false, %13 ], [ %26, %20 ]
  br i1 %28, label %29, label %35

29:                                               ; preds = %27
  %30 = load i32, i32* %8, align 4
  %31 = add nsw i32 %30, 1
  store i32 %31, i32* %8, align 4
  br label %32

32:                                               ; preds = %29
  %33 = load i32, i32* %9, align 4
  %34 = add nsw i32 %33, 1
  store i32 %34, i32* %9, align 4
  br label %13

35:                                               ; preds = %27
  %36 = load i32, i32* %8, align 4
  %37 = sub nsw i32 %36, 1
  store i32 %37, i32* %10, align 4
  br label %38

38:                                               ; preds = %51, %35
  %39 = load i32, i32* %10, align 4
  %40 = icmp sge i32 %39, 0
  br i1 %40, label %41, label %54

41:                                               ; preds = %38
  %42 = load i32, i32* %10, align 4
  %43 = sext i32 %42 to i64
  %44 = getelementptr inbounds [5 x i8], [5 x i8]* %6, i64 0, i64 %43
  %45 = load i8, i8* %44, align 1
  %46 = load i32, i32* %11, align 4
  %47 = sext i32 %46 to i64
  %48 = getelementptr inbounds [5 x i8], [5 x i8]* %7, i64 0, i64 %47
  store i8 %45, i8* %48, align 1
  %49 = load i32, i32* %11, align 4
  %50 = add nsw i32 %49, 1
  store i32 %50, i32* %11, align 4
  br label %51

51:                                               ; preds = %41
  %52 = load i32, i32* %10, align 4
  %53 = add nsw i32 %52, -1
  store i32 %53, i32* %10, align 4
  br label %38

54:                                               ; preds = %38
  %55 = getelementptr inbounds [5 x i8], [5 x i8]* %7, i64 0, i64 0
  %56 = call i32 (i8*, ...) @printf(i8* getelementptr inbounds ([3 x i8], [3 x i8]* @.str, i64 0, i64 0), i8* %55)
  ret i32 0
}

declare dso_local i32 @__isoc99_scanf(i8*, ...) #1

declare dso_local i32 @printf(i8*, ...) #1


!llvm.module.flags = !{!0}
!llvm.ident = !{!1}

!0 = !{i32 1, !"wchar_size", i32 4}
!1 = !{!"clang version 10.0.0-4ubuntu1 "}
